target datalayout = "e-m:e-p270:32:32-p271:32:32-p272:64:64-i64:64-i128:128-f80:128-n8:16:32:64-S128"
target triple = "x86_64-pc-linux-gnu"

%"class.clang::SourceLocation" = type { i32 }
%"class.clang::MacroPPCallbacks" = type { %"class.clang::PPCallbacks", ptr, ptr, %"class.clang::SourceLocation", i32, i32, %"class.llvm::SmallVector.162" }
%"class.clang::PPCallbacks" = type { ptr }
%"class.llvm::SmallVector.162" = type { %"class.llvm::SmallVectorImpl.163", %"struct.llvm::SmallVectorStorage.166" }
%"class.llvm::SmallVectorImpl.163" = type { %"class.llvm::SmallVectorTemplateBase.164" }
%"class.llvm::SmallVectorTemplateBase.164" = type { %"class.llvm::SmallVectorTemplateCommon.165" }
%"class.llvm::SmallVectorTemplateCommon.165" = type { %"class.llvm::SmallVectorBase.7" }
%"class.llvm::SmallVectorBase.7" = type { ptr, i32, i32 }
%"struct.llvm::SmallVectorStorage.166" = type { [32 x i8] }

; Function Attrs: mustprogress nounwind uwtable
define linkonce_odr hidden void @_ZN5clang14SourceLocationC2Ev(ptr noundef nonnull align 4 dereferenceable(4) %0) unnamed_addr #0 comdat align 2 {
  %2 = alloca ptr, align 8
  store ptr %0, ptr %2, align 8
  %3 = load ptr, ptr %2, align 8
  %4 = getelementptr inbounds nuw %"class.clang::SourceLocation", ptr %3, i32 0, i32 0
  store i32 0, ptr %4, align 4
  ret void
}

; Function Attrs: mustprogress nounwind uwtable
define dso_local i32 @_ZN5clang16MacroPPCallbacks18getCorrectLocationENS_14SourceLocationE(ptr noundef nonnull align 8 dereferenceable(88) %0, i32 %1) #0 align 2 {
  %3 = alloca %"class.clang::SourceLocation", align 4
  %4 = alloca %"class.clang::SourceLocation", align 4
  %5 = alloca ptr, align 8
  %6 = getelementptr inbounds nuw %"class.clang::SourceLocation", ptr %4, i32 0, i32 0
  store i32 %1, ptr %6, align 4
  store ptr %0, ptr %5, align 8
  %7 = load ptr, ptr %5, align 8
  %8 = getelementptr inbounds nuw %"class.clang::MacroPPCallbacks", ptr %7, i32 0, i32 5
  %9 = load i32, ptr %8, align 8
  %10 = icmp eq i32 %9, 4
  br i1 %10, label %15, label %11

11:                                               ; preds = %2
  %12 = getelementptr inbounds nuw %"class.clang::MacroPPCallbacks", ptr %7, i32 0, i32 4
  %13 = load i32, ptr %12, align 4
  %14 = icmp ne i32 %13, 0
  br i1 %14, label %15, label %16

15:                                               ; preds = %11, %2
  call void @llvm.memcpy.p0.p0.i64(ptr align 4 %3, ptr align 4 %4, i64 4, i1 false)
  br label %17

16:                                               ; preds = %11
  call void @llvm.memset.p0.i64(ptr align 4 %3, i8 0, i64 4, i1 false)
  call void @_ZN5clang14SourceLocationC2Ev(ptr noundef nonnull align 4 dereferenceable(4) %3) #7
  br label %17

17:                                               ; preds = %16, %15
  %18 = getelementptr inbounds nuw %"class.clang::SourceLocation", ptr %3, i32 0, i32 0
  %19 = load i32, ptr %18, align 4
  ret i32 %19
}