; Function Attrs: mustprogress nofree norecurse nosync nounwind willreturn memory(argmem: read) uwtable
define dso_local i32 @_ZN5clang16MacroPPCallbacks18getCorrectLocationENS_14SourceLocationE(ptr noundef nonnull readonly align 8 captures(none) dereferenceable(88) %0, i32 %1) local_unnamed_addr #2 align 2 {
  %3 = getelementptr inbounds nuw i8, ptr %0, i64 32
  %4 = load i32, ptr %3, align 8
  %5 = icmp ne i32 %4, 4
  %6 = getelementptr inbounds nuw i8, ptr %0, i64 28
  %7 = load i32, ptr %6, align 4
  %.not = icmp eq i32 %7, 0
  %or.cond = select i1 %5, i1 %.not, i1 false
  %spec.select = select i1 %or.cond, i32 0, i32 %1
  ret i32 %spec.select
}